; Function Attrs: nounwind uwtable
define i32 @wc_RsaEncryptSize(ptr noundef %0) local_unnamed_addr #0 {
  %2 = icmp eq ptr %0, null
  br i1 %2, label %5, label %3

3:                                                ; preds = %1
  %4 = tail call i32 @sp_unsigned_bin_size(ptr noundef nonnull %0) #12
  br label %5

5:                                                ; preds = %1, %3
  %.0 = phi i32 [ %4, %3 ], [ -173, %1 ]
  ret i32 %.0
}